; Function Attrs: nounwind uwtable
define i64 @H5Tget_member_offset(i64 noundef %0, i32 noundef %1) local_unnamed_addr #0 {
  %3 = load i8, ptr @H5_libinit_g, align 1
  %4 = trunc i8 %3 to i1
  %5 = load i8, ptr @H5_libterm_g, align 1
  %6 = trunc i8 %5 to i1
  %7 = select i1 %4, i1 true, i1 %6
  br i1 %7, label %15, label %8

8:                                                ; preds = %2
  %9 = tail call i32 @H5_init_library() #6
  %10 = icmp slt i32 %9, 0
  br i1 %10, label %11, label %15

11:                                               ; preds = %8
  %12 = load i64, ptr @H5E_FUNC_g, align 8
  %13 = load i64, ptr @H5E_CANTINIT_g, align 8
  %14 = tail call i32 (ptr, ptr, i32, i64, i64, ptr, ...) @H5E_printf_stack(ptr noundef nonnull @.str, ptr noundef nonnull @__func__.H5Tget_member_offset, i32 noundef 89, i64 noundef %12, i64 noundef %13, ptr noundef nonnull @.str.1) #6
  br label %.thread25

15:                                               ; preds = %8, %2
  %16 = tail call i32 @H5CX_push() #6
  %17 = icmp slt i32 %16, 0
  br i1 %17, label %18, label %22

18:                                               ; preds = %15
  %19 = load i64, ptr @H5E_FUNC_g, align 8
  %20 = load i64, ptr @H5E_CANTSET_g, align 8
  %21 = tail call i32 (ptr, ptr, i32, i64, i64, ptr, ...) @H5E_printf_stack(ptr noundef nonnull @.str, ptr noundef nonnull @__func__.H5Tget_member_offset, i32 noundef 89, i64 noundef %19, i64 noundef %20, ptr noundef nonnull @.str.2) #6
  br label %.thread25

22:                                               ; preds = %15
  %23 = tail call i32 @H5E_clear_stack() #6
  %24 = tail call ptr @H5I_object_verify(i64 noundef %0, i32 noundef 3) #6
  %25 = icmp eq ptr %24, null
  br i1 %25, label %31, label %26

26:                                               ; preds = %22
  %27 = getelementptr inbounds i8, ptr %24, i64 40
  %28 = load ptr, ptr %27, align 8
  %29 = getelementptr inbounds i8, ptr %28, i64 12
  %30 = load i32, ptr %29, align 4
  %.not = icmp eq i32 %30, 6
  br i1 %.not, label %35, label %31

31:                                               ; preds = %22, %26
  %32 = load i64, ptr @H5E_ARGS_g, align 8
  %33 = load i64, ptr @H5E_BADTYPE_g, align 8
  %34 = tail call i32 (ptr, ptr, i32, i64, i64, ptr, ...) @H5E_printf_stack(ptr noundef nonnull @.str, ptr noundef nonnull @__func__.H5Tget_member_offset, i32 noundef 93, i64 noundef %32, i64 noundef %33, ptr noundef nonnull @.str.3) #6
  br label %.thread31

35:                                               ; preds = %26
  %36 = getelementptr inbounds i8, ptr %28, i64 52
  %37 = load i32, ptr %36, align 4
  %.not16 = icmp ugt i32 %37, %1
  br i1 %.not16, label %43, label %38

38:                                               ; preds = %35
  %39 = load i64, ptr @H5E_ARGS_g, align 8
  %40 = load i64, ptr @H5E_BADVALUE_g, align 8
  %41 = tail call i32 (ptr, ptr, i32, i64, i64, ptr, ...) @H5E_printf_stack(ptr noundef nonnull @.str, ptr noundef nonnull @__func__.H5Tget_member_offset, i32 noundef 95, i64 noundef %39, i64 noundef %40, ptr noundef nonnull @.str.4) #6
  br label %.thread31

.thread31:                                        ; preds = %38, %31
  %42 = tail call i32 @H5CX_pop(i1 noundef zeroext true) #6
  br label %.thread25

43:                                               ; preds = %35
  %44 = getelementptr inbounds i8, ptr %28, i64 64
  %45 = load ptr, ptr %44, align 8
  %46 = zext i32 %1 to i64
  %47 = getelementptr inbounds %struct.H5T_cmemb_t, ptr %45, i64 %46, i32 1
  %48 = load i64, ptr %47, align 8
  %49 = tail call i32 @H5CX_pop(i1 noundef zeroext true) #6
  br label %51

.thread25:                                        ; preds = %18, %11, %.thread31
  %50 = tail call i32 @H5E_dump_api_stack() #6
  br label %51

51:                                               ; preds = %43, %.thread25
  %.0132028 = phi i64 [ 0, %.thread25 ], [ %48, %43 ]
  ret i64 %.0132028
}